Certificate:
    Data:
        Version: 3 (0x2)
        Serial Number: 1 (0x1)
    Signature Algorithm: sha256WithRSAEncryption
        Issuer: CN=127.0.0.1@
        Validity
            Not Before: Dec 30 11:02:31 2020 GMT
            Not After : Dec 28 11:02:31 2030 GMT
        Subject: CN=proxy-master
        Subject Public Key Info:
            Public Key Algorithm: rsaEncryption
                Public-Key: (2048 bit)
                Modulus:
                    00:f0:65:3e:01:e2:93:8b:7f:68:b4:b6:d1:6a:8f:
                    13:da:98:fe:b9:b1:89:e5:cc:d4:0f:4e:f6:0c:25:
                    fc:af:b7:b3:fd:94:b1:4d:9e:46:9f:ec:0c:49:70:
                    56:c6:c6:12:fc:16:d4:a9:d0:35:a2:0b:e9:dc:94:
                    d2:4a:82:ec:c6:0d:9c:ba:dd:e2:1e:30:68:5a:8f:
                    62:cf:ad:ea:b6:17:dd:17:7d:e4:b8:21:74:77:0c:
                    04:97:a8:21:18:7d:1b:ef:04:d2:2d:76:8c:4f:bc:
                    b0:c8:89:09:21:11:96:aa:a5:7e:b6:0e:48:05:a3:
                    00:eb:3a:77:0b:65:af:93:dd:25:e3:65:0c:4a:50:
                    2d:bb:a5:e4:97:97:52:01:a8:93:94:31:18:60:69:
                    f9:c2:d5:2c:23:a2:fd:32:60:ba:dd:ae:bf:df:2c:
                    e0:44:1c:45:a5:0c:b1:bc:60:05:5f:c1:ad:ed:35:
                    88:ff:6c:3e:ac:10:7a:29:95:29:3d:1b:6d:01:5b:
                    b5:bb:c0:b1:5f:e5:84:73:e4:51:9b:28:42:06:26:
                    66:ba:2f:4c:66:e6:53:36:34:07:7d:05:b9:72:cb:
                    dd:e1:f3:5f:18:3d:ae:b7:78:c5:30:3f:43:50:49:
                    f4:1a:7d:75:ab:69:e9:89:60:d0:11:fd:54:f6:68:
                    a1:fd
                Exponent: 65537 (0x10001)
        X509v3 extensions:
            X509v3 Basic Constraints: 
                CA:FALSE
            X509v3 Subject Key Identifier: 
                1F:41:F5:8A:B9:50:77:95:07:7D:AD:18:B5:10:0D:9E:B9:83:A9:75
            X509v3 Authority Key Identifier: 
                keyid:FC:07:85:CD:E5:D2:B0:6A:D5:FA:63:B8:8C:CC:70:22:5A:17:87:A4
                DirName:/CN=127.0.0.1@
                serial:B6:8C:0E:8C:A8:6F:40:DA

            X509v3 Extended Key Usage: 
                TLS Web Server Authentication
            X509v3 Key Usage: 
                Digital Signature, Key Encipherment
            X509v3 Subject Alternative Name: 
                DNS:kubernetes, DNS:localhost, IP Address:127.0.0.1
    Signature Algorithm: sha256WithRSAEncryption
         3b:4e:84:04:c2:5f:b0:f8:cb:6c:37:03:6f:09:cd:99:b4:49:
         14:a6:a3:37:c0:e9:86:18:83:5e:1a:88:26:c0:5d:7f:b6:bd:
         47:14:83:ad:c5:3f:3c:92:76:0f:af:eb:3c:2c:ff:d4:79:8f:
         88:79:72:cb:c3:ee:d0:a4:a4:5f:53:70:b9:37:76:d5:30:2d:
         f8:35:b7:41:46:c8:8a:eb:ac:06:37:7f:97:46:12:0e:5d:58:
         dd:ca:3c:7a:f3:b8:4b:9b:88:7c:39:fa:72:80:f4:90:93:25:
         40:82:a2:ba:03:41:2a:33:e7:83:d4:ed:d7:02:d1:e8:a6:6d:
         13:c5:e0:0b:42:9b:f6:36:13:47:0c:fc:83:dc:23:df:d6:91:
         81:61:b3:b4:0e:8d:b5:07:2f:83:18:a6:66:09:42:a8:18:19:
         a1:b8:89:ae:ec:f5:1d:7d:2c:4a:66:11:ef:f9:52:8e:51:fd:
         54:45:c9:57:11:b5:66:c5:32:74:f9:6f:dc:b8:20:3a:26:47:
         ac:04:7d:ee:39:2e:f5:c4:fc:f1:2b:b3:a3:82:4e:ca:78:ff:
         80:a9:4e:77:72:e2:df:03:23:92:9a:2b:2c:c0:cc:86:8c:0b:
         40:db:84:19:ec:6d:42:87:8d:b2:9d:0d:e9:ce:04:86:4e:d8:
         05:b0:06:6d
-----BEGIN CERTIFICATE-----
MIIDZjCCAk6gAwIBAgIBATANBgkqhkiG9w0BAQsFADAVMRMwEQYDVQQDDAoxMjcu
MC4wLjFAMB4XDTIwMTIzMDExMDIzMVoXDTMwMTIyODExMDIzMVowFzEVMBMGA1UE
AwwMcHJveHktbWFzdGVyMIIBIjANBgkqhkiG9w0BAQEFAAOCAQ8AMIIBCgKCAQEA
8GU+AeKTi39otLbRao8T2pj+ubGJ5czUD072DCX8r7ez/ZSxTZ5Gn+wMSXBWxsYS
/BbUqdA1ogvp3JTSSoLsxg2cut3iHjBoWo9iz63qthfdF33kuCF0dwwEl6ghGH0b
7wTSLXaMT7ywyIkJIRGWqqV+tg5IBaMA6zp3C2Wvk90l42UMSlAtu6Xkl5dSAaiT
lDEYYGn5wtUsI6L9MmC63a6/3yzgRBxFpQyxvGAFX8Gt7TWI/2w+rBB6KZUpPRtt
AVu1u8CxX+WEc+RRmyhCBiZmui9MZuZTNjQHfQW5csvd4fNfGD2ut3jFMD9DUEn0
Gn11q2npiWDQEf1U9mih/QIDAQABo4G+MIG7MAkGA1UdEwQCMAAwHQYDVR0OBBYE
FB9B9Yq5UHeVB32tGLUQDZ65g6l1MEUGA1UdIwQ+MDyAFPwHhc3l0rBq1fpjuIzM
cCJaF4ekoRmkFzAVMRMwEQYDVQQDDAoxMjcuMC4wLjFAggkAtowOjKhvQNowEwYD
VR0lBAwwCgYIKwYBBQUHAwEwCwYDVR0PBAQDAgWgMCYGA1UdEQQfMB2CCmt1YmVy
bmV0ZXOCCWxvY2FsaG9zdIcEfwAAATANBgkqhkiG9w0BAQsFAAOCAQEAO06EBMJf
sPjLbDcDbwnNmbRJFKajN8DphhiDXhqIJsBdf7a9RxSDrcU/PJJ2D6/rPCz/1HmP
iHlyy8Pu0KSkX1NwuTd21TAt+DW3QUbIiuusBjd/l0YSDl1Y3co8evO4S5uIfDn6
coD0kJMlQIKiugNBKjPng9Tt1wLR6KZtE8XgC0Kb9jYTRwz8g9wj39aRgWGztA6N
tQcvgximZglCqBgZobiJruz1HX0sSmYR7/lSjlH9VEXJVxG1ZsUydPlv3LggOiZH
rAR97jku9cT88Suzo4JOynj/gKlOd3Li3wMjkporLMDMhowLQNuEGextQoeNsp0N
6c4Ehk7YBbAGbQ==
-----END CERTIFICATE-----
