Certificate:
    Data:
        Version: 3 (0x2)
        Serial Number: 2 (0x2)
    Signature Algorithm: sha256WithRSAEncryption
        Issuer: CN=127.0.0.1@
        Validity
            Not Before: Dec 30 11:02:31 2020 GMT
            Not After : Dec 28 11:02:31 2030 GMT
        Subject: CN=proxy-agent
        Subject Public Key Info:
            Public Key Algorithm: rsaEncryption
                Public-Key: (2048 bit)
                Modulus:
                    00:be:83:86:78:9e:e7:c1:9a:cb:bc:df:4e:f6:87:
                    cd:c8:9a:11:02:35:de:ac:2c:64:2a:35:cd:12:38:
                    18:10:ef:30:84:b0:b5:2d:e3:cb:c5:30:e0:d6:4d:
                    0f:ae:7b:39:a2:c1:f7:a9:40:ca:b6:7e:a9:1e:76:
                    20:65:91:07:2e:c2:73:95:6a:80:72:b7:6e:4e:80:
                    48:30:68:e9:7d:a0:f7:19:a1:12:30:3b:c6:fa:aa:
                    6f:60:1c:d3:86:9a:49:47:2d:c2:f3:fc:b3:8b:4e:
                    87:bd:5a:20:82:63:06:bf:4a:31:cf:0d:87:92:6e:
                    1f:6a:03:1b:8e:78:c5:99:3e:63:39:34:23:47:d2:
                    01:19:f5:66:13:38:33:f0:d6:ee:75:f2:32:23:85:
                    0c:9d:9d:71:7c:99:b3:33:45:b5:b7:bd:cd:e3:ce:
                    a5:b0:fe:fd:89:ef:f2:f7:da:ce:03:25:1f:13:6a:
                    98:c3:aa:b9:51:9b:13:9d:2c:f5:1f:4f:bf:1f:71:
                    f5:a0:e5:b1:7e:67:59:e2:2a:a4:08:7a:b8:1a:5d:
                    ed:19:70:ce:7a:a6:26:c1:5d:23:08:cf:11:dd:fc:
                    d0:ed:85:a8:46:72:45:48:7e:6e:5e:2c:47:eb:9d:
                    f3:83:f0:31:f1:a8:b5:5d:ef:ba:0c:9f:20:9c:b6:
                    65:b1
                Exponent: 65537 (0x10001)
        X509v3 extensions:
            X509v3 Basic Constraints: 
                CA:FALSE
            X509v3 Subject Key Identifier: 
                0A:11:52:CB:1B:06:1D:7F:D0:5F:D0:F1:7B:7E:C8:4F:2A:DA:96:A0
            X509v3 Authority Key Identifier: 
                keyid:DE:CD:D3:B5:F8:43:66:AE:90:63:8B:B2:D6:2B:76:E1:7E:20:A6:8D
                DirName:/CN=127.0.0.1@
                serial:D6:DA:F5:79:F8:74:19:04

            X509v3 Extended Key Usage: 
                TLS Web Client Authentication
            X509v3 Key Usage: 
                Digital Signature
    Signature Algorithm: sha256WithRSAEncryption
         b6:35:df:5a:0e:fb:50:95:d1:0e:4a:96:e3:6f:8c:4e:04:08:
         a5:9d:1d:f7:32:93:cd:79:23:a3:44:b4:d5:57:e8:bd:27:f4:
         90:fa:a2:35:5a:77:2e:c6:6c:99:09:79:90:f0:c1:1a:d6:bf:
         a8:fe:9c:0f:10:cd:c5:7c:5d:fe:2f:53:10:de:59:08:0f:ac:
         4d:d8:9c:f7:27:ec:a6:53:f0:23:ed:d6:12:80:56:d8:20:0c:
         94:c4:95:aa:df:95:69:9b:02:3f:93:c6:70:28:06:9a:16:a8:
         7c:81:ae:e9:63:e2:d4:57:62:63:c6:20:87:bb:f7:19:ae:80:
         93:ba:ba:48:12:ac:0f:ff:d2:82:eb:a5:06:4f:90:a2:28:ad:
         33:9b:bb:5d:87:1b:9d:b8:94:48:ba:d9:fc:8f:b5:38:93:23:
         0c:ce:df:37:01:65:79:90:f1:e2:35:6c:ba:db:8f:b3:76:41:
         80:c2:19:68:03:97:d4:9c:43:94:76:4d:b1:da:f2:66:84:f6:
         42:9f:79:1c:9d:02:32:09:19:75:1a:ef:81:e9:78:bd:09:bf:
         cb:eb:b6:04:a3:d8:e1:26:54:2e:be:bb:15:df:72:ac:35:c1:
         53:c8:9a:da:27:2e:e5:fb:38:a3:14:df:0f:d2:0c:39:ab:68:
         41:2c:dc:e3
-----BEGIN CERTIFICATE-----
MIIDPTCCAiWgAwIBAgIBAjANBgkqhkiG9w0BAQsFADAVMRMwEQYDVQQDDAoxMjcu
MC4wLjFAMB4XDTIwMTIzMDExMDIzMVoXDTMwMTIyODExMDIzMVowFjEUMBIGA1UE
AwwLcHJveHktYWdlbnQwggEiMA0GCSqGSIb3DQEBAQUAA4IBDwAwggEKAoIBAQC+
g4Z4nufBmsu83072h83ImhECNd6sLGQqNc0SOBgQ7zCEsLUt48vFMODWTQ+uezmi
wfepQMq2fqkediBlkQcuwnOVaoByt25OgEgwaOl9oPcZoRIwO8b6qm9gHNOGmklH
LcLz/LOLToe9WiCCYwa/SjHPDYeSbh9qAxuOeMWZPmM5NCNH0gEZ9WYTODPw1u51
8jIjhQydnXF8mbMzRbW3vc3jzqWw/v2J7/L32s4DJR8TapjDqrlRmxOdLPUfT78f
cfWg5bF+Z1niKqQIergaXe0ZcM56pibBXSMIzxHd/NDthahGckVIfm5eLEfrnfOD
8DHxqLVd77oMnyCctmWxAgMBAAGjgZYwgZMwCQYDVR0TBAIwADAdBgNVHQ4EFgQU
ChFSyxsGHX/QX9Dxe37ITyralqAwRQYDVR0jBD4wPIAU3s3TtfhDZq6QY4uy1it2
4X4gpo2hGaQXMBUxEzARBgNVBAMMCjEyNy4wLjAuMUCCCQDW2vV5+HQZBDATBgNV
HSUEDDAKBggrBgEFBQcDAjALBgNVHQ8EBAMCB4AwDQYJKoZIhvcNAQELBQADggEB
ALY131oO+1CV0Q5KluNvjE4ECKWdHfcyk815I6NEtNVX6L0n9JD6ojVady7GbJkJ
eZDwwRrWv6j+nA8QzcV8Xf4vUxDeWQgPrE3YnPcn7KZT8CPt1hKAVtggDJTElarf
lWmbAj+TxnAoBpoWqHyBrulj4tRXYmPGIIe79xmugJO6ukgSrA//0oLrpQZPkKIo
rTObu12HG524lEi62fyPtTiTIwzO3zcBZXmQ8eI1bLrbj7N2QYDCGWgDl9ScQ5R2
TbHa8maE9kKfeRydAjIJGXUa74HpeL0Jv8vrtgSj2OEmVC6+uxXfcqw1wVPImton
LuX7OKMU3w/SDDmraEEs3OM=
-----END CERTIFICATE-----
