Certificate:
    Data:
        Version: 3 (0x2)
        Serial Number: 2 (0x2)
    Signature Algorithm: sha256WithRSAEncryption
        Issuer: CN=127.0.0.1@
        Validity
            Not Before: Dec 30 11:02:31 2020 GMT
            Not After : Dec 28 11:02:31 2030 GMT
        Subject: CN=proxy-client
        Subject Public Key Info:
            Public Key Algorithm: rsaEncryption
                Public-Key: (2048 bit)
                Modulus:
                    00:a2:36:f9:34:4a:fd:4c:53:dc:e0:6d:5d:dd:6a:
                    6d:3c:a6:f2:46:1e:dc:ca:a3:c3:13:5e:3c:34:57:
                    4b:4e:3d:32:7e:b1:5e:6a:9a:22:9f:d0:2d:f4:1e:
                    ac:7b:2c:17:fd:5b:ed:c6:0a:a0:f9:31:39:f3:1a:
                    3b:57:33:cb:94:63:35:2e:aa:4d:79:74:e6:36:2e:
                    78:4c:8c:e6:67:e7:dd:0f:05:2e:75:b0:1a:7f:50:
                    fb:6e:ab:a3:be:00:6e:25:95:94:3e:73:1b:6c:0f:
                    23:07:81:9c:08:3c:fb:37:74:88:5f:e2:fd:38:e8:
                    13:91:14:09:11:1f:6e:93:52:fc:cb:7a:95:5a:02:
                    a3:49:c0:c6:77:fa:ef:d7:45:df:14:25:61:2c:1a:
                    f2:38:5a:09:b4:ca:be:66:3a:b1:5f:c4:d8:ae:5d:
                    61:a0:6f:65:29:8b:67:7b:82:0a:ba:c4:4f:54:b9:
                    55:67:48:70:85:3d:b5:a3:e5:17:46:f0:81:49:16:
                    1a:31:48:10:89:07:be:05:a4:ac:80:25:00:06:9a:
                    11:0c:4c:ee:dd:f5:ba:57:8e:55:b9:38:db:fb:55:
                    06:72:5c:07:66:47:e7:95:c1:a1:2a:d1:64:ad:67:
                    3c:1e:0b:78:ab:4e:b6:66:fe:87:c9:b7:2b:1b:89:
                    99:0f
                Exponent: 65537 (0x10001)
        X509v3 extensions:
            X509v3 Basic Constraints: 
                CA:FALSE
            X509v3 Subject Key Identifier: 
                61:04:0F:4F:30:BA:2A:26:39:9A:07:5E:4D:27:2C:8B:EA:07:CF:71
            X509v3 Authority Key Identifier: 
                keyid:FC:07:85:CD:E5:D2:B0:6A:D5:FA:63:B8:8C:CC:70:22:5A:17:87:A4
                DirName:/CN=127.0.0.1@
                serial:B6:8C:0E:8C:A8:6F:40:DA

            X509v3 Extended Key Usage: 
                TLS Web Client Authentication
            X509v3 Key Usage: 
                Digital Signature
    Signature Algorithm: sha256WithRSAEncryption
         58:6c:56:1a:84:a8:32:88:24:fe:c0:b1:02:be:79:55:ff:33:
         3f:32:99:42:d1:10:f2:54:37:d8:a4:ad:28:bb:f6:d7:e9:bc:
         a6:9e:6d:23:41:9d:db:6f:e5:5d:98:81:c7:02:6d:42:35:40:
         41:fa:63:9f:bc:34:53:9c:19:07:98:67:00:4a:ad:75:54:c8:
         a1:db:14:61:64:b7:2f:8b:bb:8b:d6:8a:1c:a3:a4:5a:e7:c7:
         05:6c:2d:d7:c4:a0:0d:52:dd:04:dc:06:a4:28:54:47:d6:c5:
         69:d5:fc:29:3c:87:ac:cf:a5:4a:81:97:48:cc:29:f5:fb:58:
         6d:9e:02:bb:28:77:e0:e8:a6:24:d6:d5:cc:14:f1:86:7d:89:
         69:31:24:60:1f:4e:24:02:d7:57:d2:d5:57:2f:17:d0:22:98:
         af:4c:6f:3e:4c:2e:6f:83:e7:7c:ca:f4:ea:10:c8:76:86:4a:
         9f:57:d7:e9:90:88:dc:99:d3:5b:de:9c:9c:af:2e:7b:ff:74:
         b5:a0:2f:7c:74:2b:63:c3:19:19:7b:eb:3d:1a:05:2b:23:28:
         c8:42:f0:1e:56:89:3f:5d:4e:8c:58:23:65:29:7c:84:32:0d:
         3e:30:ad:3c:a2:51:f4:69:af:3f:4b:de:96:90:55:fa:c8:7b:
         d9:59:68:51
-----BEGIN CERTIFICATE-----
MIIDPjCCAiagAwIBAgIBAjANBgkqhkiG9w0BAQsFADAVMRMwEQYDVQQDDAoxMjcu
MC4wLjFAMB4XDTIwMTIzMDExMDIzMVoXDTMwMTIyODExMDIzMVowFzEVMBMGA1UE
AwwMcHJveHktY2xpZW50MIIBIjANBgkqhkiG9w0BAQEFAAOCAQ8AMIIBCgKCAQEA
ojb5NEr9TFPc4G1d3WptPKbyRh7cyqPDE148NFdLTj0yfrFeapoin9At9B6seywX
/Vvtxgqg+TE58xo7VzPLlGM1LqpNeXTmNi54TIzmZ+fdDwUudbAaf1D7bqujvgBu
JZWUPnMbbA8jB4GcCDz7N3SIX+L9OOgTkRQJER9uk1L8y3qVWgKjScDGd/rv10Xf
FCVhLBryOFoJtMq+ZjqxX8TYrl1hoG9lKYtne4IKusRPVLlVZ0hwhT21o+UXRvCB
SRYaMUgQiQe+BaSsgCUABpoRDEzu3fW6V45VuTjb+1UGclwHZkfnlcGhKtFkrWc8
Hgt4q062Zv6HybcrG4mZDwIDAQABo4GWMIGTMAkGA1UdEwQCMAAwHQYDVR0OBBYE
FGEED08wuiomOZoHXk0nLIvqB89xMEUGA1UdIwQ+MDyAFPwHhc3l0rBq1fpjuIzM
cCJaF4ekoRmkFzAVMRMwEQYDVQQDDAoxMjcuMC4wLjFAggkAtowOjKhvQNowEwYD
VR0lBAwwCgYIKwYBBQUHAwIwCwYDVR0PBAQDAgeAMA0GCSqGSIb3DQEBCwUAA4IB
AQBYbFYahKgyiCT+wLECvnlV/zM/MplC0RDyVDfYpK0ou/bX6bymnm0jQZ3bb+Vd
mIHHAm1CNUBB+mOfvDRTnBkHmGcASq11VMih2xRhZLcvi7uL1ooco6Ra58cFbC3X
xKANUt0E3AakKFRH1sVp1fwpPIesz6VKgZdIzCn1+1htngK7KHfg6KYk1tXMFPGG
fYlpMSRgH04kAtdX0tVXLxfQIpivTG8+TC5vg+d8yvTqEMh2hkqfV9fpkIjcmdNb
3pycry57/3S1oC98dCtjwxkZe+s9GgUrIyjIQvAeVok/XU6MWCNlKXyEMg0+MK08
olH0aa8/S96WkFX6yHvZWWhR
-----END CERTIFICATE-----
